; Function Attrs: nounwind uwtable
define hidden void @Curl_node_remove(ptr noundef %0) local_unnamed_addr #2 {
  %.not.i = icmp eq ptr %0, null
  br i1 %.not.i, label %Curl_node_uremove.exit, label %2

2:                                                ; preds = %1
  %3 = load ptr, ptr %0, align 8, !tbaa !14
  %.not10.i = icmp eq ptr %3, null
  br i1 %.not10.i, label %Curl_node_uremove.exit, label %4

4:                                                ; preds = %2
  %5 = load ptr, ptr %3, align 8, !tbaa !15
  %6 = icmp eq ptr %0, %5
  br i1 %6, label %7, label %14

7:                                                ; preds = %4
  %8 = getelementptr inbounds nuw i8, ptr %0, i64 24
  %9 = load ptr, ptr %8, align 8, !tbaa !18
  store ptr %9, ptr %3, align 8, !tbaa !15
  %.not33.i.i = icmp eq ptr %9, null
  br i1 %.not33.i.i, label %10, label %12

10:                                               ; preds = %7
  %11 = getelementptr inbounds nuw i8, ptr %3, i64 8
  store ptr null, ptr %11, align 8, !tbaa !16
  br label %Curl_node_take_elem.exit.i

12:                                               ; preds = %7
  %13 = getelementptr inbounds nuw i8, ptr %9, i64 16
  store ptr null, ptr %13, align 8, !tbaa !19
  br label %Curl_node_take_elem.exit.i

14:                                               ; preds = %4
  %15 = getelementptr inbounds nuw i8, ptr %0, i64 16
  %16 = load ptr, ptr %15, align 8, !tbaa !19
  %.not31.i.i = icmp eq ptr %16, null
  %.phi.trans.insert.i.i = getelementptr inbounds nuw i8, ptr %0, i64 24
  %.pre.i.i = load ptr, ptr %.phi.trans.insert.i.i, align 8, !tbaa !18
  br i1 %.not31.i.i, label %._crit_edge.i.i, label %17

17:                                               ; preds = %14
  %18 = getelementptr inbounds nuw i8, ptr %16, i64 24
  store ptr %.pre.i.i, ptr %18, align 8, !tbaa !18
  br label %._crit_edge.i.i

._crit_edge.i.i:                                  ; preds = %17, %14
  %.not32.i.i = icmp eq ptr %.pre.i.i, null
  br i1 %.not32.i.i, label %19, label %21

19:                                               ; preds = %._crit_edge.i.i
  %20 = getelementptr inbounds nuw i8, ptr %3, i64 8
  store ptr %16, ptr %20, align 8, !tbaa !16
  br label %Curl_node_take_elem.exit.i

21:                                               ; preds = %._crit_edge.i.i
  %22 = getelementptr inbounds nuw i8, ptr %.pre.i.i, i64 16
  store ptr %16, ptr %22, align 8, !tbaa !19
  br label %Curl_node_take_elem.exit.i

Curl_node_take_elem.exit.i:                       ; preds = %21, %19, %12, %10
  %23 = getelementptr inbounds nuw i8, ptr %3, i64 24
  %24 = load i64, ptr %23, align 8, !tbaa !3
  %25 = add i64 %24, -1
  store i64 %25, ptr %23, align 8, !tbaa !3
  %26 = getelementptr inbounds nuw i8, ptr %0, i64 8
  %27 = load ptr, ptr %26, align 8, !tbaa !11
  tail call void @llvm.memset.p0.i64(ptr noundef nonnull align 8 dereferenceable(32) %0, i8 0, i64 32, i1 false)
  %28 = getelementptr inbounds nuw i8, ptr %3, i64 16
  %29 = load ptr, ptr %28, align 8, !tbaa !10
  %.not11.i = icmp eq ptr %29, null
  br i1 %.not11.i, label %Curl_node_uremove.exit, label %30

30:                                               ; preds = %Curl_node_take_elem.exit.i
  tail call void %29(ptr noundef null, ptr noundef %27) #5
  br label %Curl_node_uremove.exit

Curl_node_uremove.exit:                           ; preds = %1, %2, %Curl_node_take_elem.exit.i, %30
  ret void
}